target datalayout = "e-m:e-p270:32:32-p271:32:32-p272:64:64-i64:64-i128:128-f80:128-n8:16:32:64-S128"
target triple = "x86_64-pc-linux-gnu"

%struct._psqlSettings = type { ptr, i32, ptr, i8, ptr, ptr, %struct.printQueryOpt, ptr, ptr, ptr, i8, i8, i32, i32, ptr, ptr, i8, [4 x ptr], i8, i32, ptr, i8, i32, ptr, ptr, i64, i64, i8, ptr, ptr, ptr, i8, i8, i8, i8, i8, i8, i8, i32, i32, i32, i32, i32, i32, i32, i32, ptr, ptr, ptr, i32, i8, i32 }
%struct.printQueryOpt = type { %struct.printTableOpt, ptr, ptr, ptr, i8, ptr, i32 }
%struct.printTableOpt = type { i32, i16, i32, i32, i16, i16, i32, i8, i8, i8, i8, i64, ptr, %struct.separator, %struct.separator, [2 x i8], i8, ptr, i32, i32, i32, i32, i32, i32 }
%struct.separator = type { ptr, i8 }

@pset = dso_local global %struct._psqlSettings zeroinitializer, align 8
@.str.80 = private unnamed_addr constant [7 x i8] c"errors\00", align 1
@.str.109 = private unnamed_addr constant [13 x i8] c"SHOW_CONTEXT\00", align 1
@.str.137 = private unnamed_addr constant [6 x i8] c"never\00", align 1
@.str.138 = private unnamed_addr constant [7 x i8] c"always\00", align 1
@.str.139 = private unnamed_addr constant [22 x i8] c"never, errors, always\00", align 1

; Function Attrs: nounwind uwtable
define internal zeroext i1 @show_context_hook(ptr noundef %0) #0 {
  %2 = alloca i1, align 1
  %3 = alloca ptr, align 8
  store ptr %0, ptr %3, align 8
  %4 = load ptr, ptr %3, align 8
  %5 = call i32 @pg_strcasecmp(ptr noundef %4, ptr noundef @.str.137)
  %6 = icmp eq i32 %5, 0
  br i1 %6, label %7, label %8

7:                                                ; preds = %1
  store i32 0, ptr getelementptr inbounds nuw (%struct._psqlSettings, ptr @pset, i32 0, i32 51), align 8
  br label %22

8:                                                ; preds = %1
  %9 = load ptr, ptr %3, align 8
  %10 = call i32 @pg_strcasecmp(ptr noundef %9, ptr noundef @.str.80)
  %11 = icmp eq i32 %10, 0
  br i1 %11, label %12, label %13

12:                                               ; preds = %8
  store i32 1, ptr getelementptr inbounds nuw (%struct._psqlSettings, ptr @pset, i32 0, i32 51), align 8
  br label %21

13:                                               ; preds = %8
  %14 = load ptr, ptr %3, align 8
  %15 = call i32 @pg_strcasecmp(ptr noundef %14, ptr noundef @.str.138)
  %16 = icmp eq i32 %15, 0
  br i1 %16, label %17, label %18

17:                                               ; preds = %13
  store i32 2, ptr getelementptr inbounds nuw (%struct._psqlSettings, ptr @pset, i32 0, i32 51), align 8
  br label %20

18:                                               ; preds = %13
  %19 = load ptr, ptr %3, align 8
  call void @PsqlVarEnumError(ptr noundef @.str.109, ptr noundef %19, ptr noundef @.str.139)
  store i1 false, ptr %2, align 1
  br label %30

20:                                               ; preds = %17
  br label %21

21:                                               ; preds = %20, %12
  br label %22

22:                                               ; preds = %21, %7
  %23 = load ptr, ptr @pset, align 8
  %24 = icmp ne ptr %23, null
  br i1 %24, label %25, label %29

25:                                               ; preds = %22
  %26 = load ptr, ptr @pset, align 8
  %27 = load i32, ptr getelementptr inbounds nuw (%struct._psqlSettings, ptr @pset, i32 0, i32 51), align 8
  %28 = call i32 @PQsetErrorContextVisibility(ptr noundef %26, i32 noundef %27)
  br label %29

29:                                               ; preds = %25, %22
  store i1 true, ptr %2, align 1
  br label %30

30:                                               ; preds = %29, %18
  %31 = load i1, ptr %2, align 1
  ret i1 %31
}