; Function Attrs: nounwind uwtable
define internal noundef zeroext i1 @show_context_hook(ptr noundef %0) #0 {
  %2 = tail call i32 @pg_strcasecmp(ptr noundef %0, ptr noundef nonnull @.str.137) #15
  %3 = icmp eq i32 %2, 0
  br i1 %3, label %11, label %4

4:                                                ; preds = %1
  %5 = tail call i32 @pg_strcasecmp(ptr noundef %0, ptr noundef nonnull @.str.80) #15
  %6 = icmp eq i32 %5, 0
  br i1 %6, label %11, label %7

7:                                                ; preds = %4
  %8 = tail call i32 @pg_strcasecmp(ptr noundef %0, ptr noundef nonnull @.str.138) #15
  %9 = icmp eq i32 %8, 0
  br i1 %9, label %11, label %10

10:                                               ; preds = %7
  tail call void @PsqlVarEnumError(ptr noundef nonnull @.str.109, ptr noundef %0, ptr noundef nonnull @.str.139) #15
  br label %15

11:                                               ; preds = %7, %4, %1
  %.sink = phi i32 [ 0, %1 ], [ 1, %4 ], [ 2, %7 ]
  store i32 %.sink, ptr getelementptr inbounds nuw (i8, ptr @pset, i64 472), align 8
  %12 = load ptr, ptr @pset, align 8
  %.not = icmp eq ptr %12, null
  br i1 %.not, label %15, label %13

13:                                               ; preds = %11
  %14 = tail call i32 @PQsetErrorContextVisibility(ptr noundef nonnull %12, i32 noundef %.sink) #15
  br label %15

15:                                               ; preds = %11, %13, %10
  %.0 = phi i1 [ false, %10 ], [ true, %13 ], [ true, %11 ]
  ret i1 %.0
}